target datalayout = "e-m:e-p270:32:32-p271:32:32-p272:64:64-i64:64-i128:128-f80:128-n8:16:32:64-S128"
target triple = "x86_64-pc-linux-gnu"

%struct.bb_state = type { %struct.bb_config, ptr, ptr, ptr, %union.pthread_mutex_t, i64, i64, ptr, i64, i64, i64, ptr, %union.pthread_cond_t, i8, %union.pthread_mutex_t, i64, i32, i32, i64, i64 }
%struct.bb_config = type { ptr, ptr, ptr, ptr, ptr, ptr, ptr, ptr, i32, ptr, ptr, i64, i32, ptr, i32, i32, i32, i32, ptr, ptr, ptr, ptr, i32 }
%union.pthread_cond_t = type { %struct.__pthread_cond_s }
%struct.__pthread_cond_s = type { %union.__atomic_wide_counter, %union.__atomic_wide_counter, [2 x i32], [2 x i32], i32, i32, [2 x i32] }
%union.__atomic_wide_counter = type { i64 }
%union.pthread_mutex_t = type { %struct.__pthread_mutex_s }
%struct.__pthread_mutex_s = type { i32, i32, i32, i32, i32, i16, i16, %struct.__pthread_internal_list }
%struct.__pthread_internal_list = type { ptr, ptr }
%struct.bb_user = type { i32, ptr, i64, i32 }
%struct.buf_t = type { i32, ptr, i32, i32, i8, i8 }

; Function Attrs: nounwind uwtable
define dso_local i32 @bb_pack_usage(i32 noundef %0, ptr noundef %1, ptr noundef %2, i16 noundef zeroext %3) #0 {
  %5 = alloca i32, align 4
  %6 = alloca i32, align 4
  %7 = alloca ptr, align 8
  %8 = alloca ptr, align 8
  %9 = alloca i16, align 2
  %10 = alloca i32, align 4
  %11 = alloca i32, align 4
  %12 = alloca ptr, align 8
  %13 = alloca i32, align 4
  %14 = alloca i32, align 4
  %15 = alloca i32, align 4
  store i32 %0, ptr %6, align 4
  store ptr %1, ptr %7, align 8
  store ptr %2, ptr %8, align 8
  store i16 %3, ptr %9, align 2
  call void @llvm.lifetime.start.p0(i64 4, ptr %10) #9
  call void @llvm.lifetime.start.p0(i64 4, ptr %11) #9
  store i32 0, ptr %11, align 4
  call void @llvm.lifetime.start.p0(i64 8, ptr %12) #9
  call void @llvm.lifetime.start.p0(i64 4, ptr %13) #9
  call void @llvm.lifetime.start.p0(i64 4, ptr %14) #9
  %16 = load ptr, ptr %8, align 8
  %17 = getelementptr inbounds nuw %struct.buf_t, ptr %16, i32 0, i32 3
  %18 = load i32, ptr %17, align 4
  store i32 %18, ptr %14, align 4
  %19 = load i32, ptr %11, align 4
  %20 = load ptr, ptr %8, align 8
  call void @pack32(i32 noundef %19, ptr noundef %20)
  %21 = load ptr, ptr %7, align 8
  %22 = getelementptr inbounds nuw %struct.bb_state, ptr %21, i32 0, i32 3
  %23 = load ptr, ptr %22, align 8
  %24 = icmp ne ptr %23, null
  br i1 %24, label %27, label %25

25:                                               ; preds = %4
  %26 = load i32, ptr %11, align 4
  store i32 %26, ptr %5, align 4
  store i32 1, ptr %15, align 4
  br label %92

27:                                               ; preds = %4
  store i32 0, ptr %10, align 4
  br label %28

28:                                               ; preds = %72, %27
  %29 = load i32, ptr %10, align 4
  %30 = icmp slt i32 %29, 100
  br i1 %30, label %31, label %75

31:                                               ; preds = %28
  %32 = load ptr, ptr %7, align 8
  %33 = getelementptr inbounds nuw %struct.bb_state, ptr %32, i32 0, i32 3
  %34 = load ptr, ptr %33, align 8
  %35 = load i32, ptr %10, align 4
  %36 = sext i32 %35 to i64
  %37 = getelementptr inbounds ptr, ptr %34, i64 %36
  %38 = load ptr, ptr %37, align 8
  store ptr %38, ptr %12, align 8
  br label %39

39:                                               ; preds = %67, %31
  %40 = load ptr, ptr %12, align 8
  %41 = icmp ne ptr %40, null
  br i1 %41, label %42, label %71

42:                                               ; preds = %39
  %43 = load i32, ptr %6, align 4
  %44 = icmp eq i32 %43, 0
  br i1 %44, label %51, label %45

45:                                               ; preds = %42
  %46 = load i32, ptr %6, align 4
  %47 = load ptr, ptr %12, align 8
  %48 = getelementptr inbounds nuw %struct.bb_user, ptr %47, i32 0, i32 3
  %49 = load i32, ptr %48, align 8
  %50 = icmp eq i32 %46, %49
  br i1 %50, label %51, label %67

51:                                               ; preds = %45, %42
  %52 = load ptr, ptr %12, align 8
  %53 = getelementptr inbounds nuw %struct.bb_user, ptr %52, i32 0, i32 2
  %54 = load i64, ptr %53, align 8
  %55 = icmp ne i64 %54, 0
  br i1 %55, label %56, label %67

56:                                               ; preds = %51
  %57 = load ptr, ptr %12, align 8
  %58 = getelementptr inbounds nuw %struct.bb_user, ptr %57, i32 0, i32 2
  %59 = load i64, ptr %58, align 8
  %60 = load ptr, ptr %8, align 8
  call void @pack64(i64 noundef %59, ptr noundef %60)
  %61 = load ptr, ptr %12, align 8
  %62 = getelementptr inbounds nuw %struct.bb_user, ptr %61, i32 0, i32 3
  %63 = load i32, ptr %62, align 8
  %64 = load ptr, ptr %8, align 8
  call void @pack32(i32 noundef %63, ptr noundef %64)
  %65 = load i32, ptr %11, align 4
  %66 = add nsw i32 %65, 1
  store i32 %66, ptr %11, align 4
  br label %67

67:                                               ; preds = %56, %51, %45
  %68 = load ptr, ptr %12, align 8
  %69 = getelementptr inbounds nuw %struct.bb_user, ptr %68, i32 0, i32 1
  %70 = load ptr, ptr %69, align 8
  store ptr %70, ptr %12, align 8
  br label %39, !llvm.loop !36

71:                                               ; preds = %39
  br label %72

72:                                               ; preds = %71
  %73 = load i32, ptr %10, align 4
  %74 = add nsw i32 %73, 1
  store i32 %74, ptr %10, align 4
  br label %28, !llvm.loop !37

75:                                               ; preds = %28
  %76 = load i32, ptr %11, align 4
  %77 = icmp ne i32 %76, 0
  br i1 %77, label %78, label %90

78:                                               ; preds = %75
  %79 = load ptr, ptr %8, align 8
  %80 = getelementptr inbounds nuw %struct.buf_t, ptr %79, i32 0, i32 3
  %81 = load i32, ptr %80, align 4
  store i32 %81, ptr %13, align 4
  %82 = load i32, ptr %14, align 4
  %83 = load ptr, ptr %8, align 8
  %84 = getelementptr inbounds nuw %struct.buf_t, ptr %83, i32 0, i32 3
  store i32 %82, ptr %84, align 4
  %85 = load i32, ptr %11, align 4
  %86 = load ptr, ptr %8, align 8
  call void @pack32(i32 noundef %85, ptr noundef %86)
  %87 = load i32, ptr %13, align 4
  %88 = load ptr, ptr %8, align 8
  %89 = getelementptr inbounds nuw %struct.buf_t, ptr %88, i32 0, i32 3
  store i32 %87, ptr %89, align 4
  br label %90

90:                                               ; preds = %78, %75
  %91 = load i32, ptr %11, align 4
  store i32 %91, ptr %5, align 4
  store i32 1, ptr %15, align 4
  br label %92

92:                                               ; preds = %90, %25
  call void @llvm.lifetime.end.p0(i64 4, ptr %14) #9
  call void @llvm.lifetime.end.p0(i64 4, ptr %13) #9
  call void @llvm.lifetime.end.p0(i64 8, ptr %12) #9
  call void @llvm.lifetime.end.p0(i64 4, ptr %11) #9
  call void @llvm.lifetime.end.p0(i64 4, ptr %10) #9
  %93 = load i32, ptr %5, align 4
  ret i32 %93
}