; Function Attrs: nounwind uwtable
define dso_local i32 @bb_pack_usage(i32 noundef %0, ptr noundef readonly captures(none) %1, ptr noundef %2, i16 noundef zeroext %3) local_unnamed_addr #0 {
  %5 = getelementptr inbounds nuw i8, ptr %2, i64 20
  %6 = load i32, ptr %5, align 4
  tail call void @pack32(i32 noundef 0, ptr noundef %2) #17
  %7 = getelementptr inbounds nuw i8, ptr %1, i64 184
  %8 = load ptr, ptr %7, align 8
  %.not = icmp eq ptr %8, null
  br i1 %.not, label %35, label %.preheader

.preheader:                                       ; preds = %4
  %9 = icmp eq i32 %0, 0
  br i1 %9, label %.preheader.split.us, label %.preheader.split

.preheader.split.us:                              ; preds = %.preheader, %._crit_edge.split.us.us
  %indvars.iv46 = phi i64 [ %indvars.iv.next47, %._crit_edge.split.us.us ], [ 0, %.preheader ]
  %.03141.us = phi i32 [ %.1.lcssa.us, %._crit_edge.split.us.us ], [ 0, %.preheader ]
  %10 = load ptr, ptr %7, align 8
  %11 = getelementptr inbounds nuw ptr, ptr %10, i64 %indvars.iv46
  %.03037.us = load ptr, ptr %11, align 8
  %.not3538.us = icmp eq ptr %.03037.us, null
  br i1 %.not3538.us, label %._crit_edge.split.us.us, label %.lr.ph.us

._crit_edge.split.us.us:                          ; preds = %18, %.preheader.split.us
  %.1.lcssa.us = phi i32 [ %.03141.us, %.preheader.split.us ], [ %.2.us.us, %18 ]
  %indvars.iv.next47 = add nuw nsw i64 %indvars.iv46, 1
  %exitcond49.not = icmp eq i64 %indvars.iv.next47, 100
  br i1 %exitcond49.not, label %.split.us, label %.preheader.split.us, !llvm.loop !36

.lr.ph.us:                                        ; preds = %.preheader.split.us, %18
  %.03040.us.us = phi ptr [ %.030.us.us, %18 ], [ %.03037.us, %.preheader.split.us ]
  %.139.us.us = phi i32 [ %.2.us.us, %18 ], [ %.03141.us, %.preheader.split.us ]
  %12 = getelementptr inbounds nuw i8, ptr %.03040.us.us, i64 16
  %13 = load i64, ptr %12, align 8
  %.not36.us.us = icmp eq i64 %13, 0
  br i1 %.not36.us.us, label %18, label %14

14:                                               ; preds = %.lr.ph.us
  tail call void @pack64(i64 noundef %13, ptr noundef %2) #17
  %15 = getelementptr inbounds nuw i8, ptr %.03040.us.us, i64 24
  %16 = load i32, ptr %15, align 8
  tail call void @pack32(i32 noundef %16, ptr noundef %2) #17
  %17 = add nsw i32 %.139.us.us, 1
  br label %18

18:                                               ; preds = %14, %.lr.ph.us
  %.2.us.us = phi i32 [ %17, %14 ], [ %.139.us.us, %.lr.ph.us ]
  %19 = getelementptr inbounds nuw i8, ptr %.03040.us.us, i64 8
  %.030.us.us = load ptr, ptr %19, align 8
  %.not35.us.us = icmp eq ptr %.030.us.us, null
  br i1 %.not35.us.us, label %._crit_edge.split.us.us, label %.lr.ph.us, !llvm.loop !37

.preheader.split:                                 ; preds = %.preheader, %._crit_edge.split
  %indvars.iv = phi i64 [ %indvars.iv.next, %._crit_edge.split ], [ 0, %.preheader ]
  %.03141 = phi i32 [ %.1.lcssa, %._crit_edge.split ], [ 0, %.preheader ]
  %20 = load ptr, ptr %7, align 8
  %21 = getelementptr inbounds nuw ptr, ptr %20, i64 %indvars.iv
  %.03037 = load ptr, ptr %21, align 8
  %.not3538 = icmp eq ptr %.03037, null
  br i1 %.not3538, label %._crit_edge.split, label %.lr.ph

.lr.ph:                                           ; preds = %.preheader.split, %31
  %.03040 = phi ptr [ %.030, %31 ], [ %.03037, %.preheader.split ]
  %.139 = phi i32 [ %.2, %31 ], [ %.03141, %.preheader.split ]
  %22 = getelementptr inbounds nuw i8, ptr %.03040, i64 24
  %23 = load i32, ptr %22, align 8
  %24 = icmp eq i32 %0, %23
  br i1 %24, label %25, label %31

25:                                               ; preds = %.lr.ph
  %26 = getelementptr inbounds nuw i8, ptr %.03040, i64 16
  %27 = load i64, ptr %26, align 8
  %.not36 = icmp eq i64 %27, 0
  br i1 %.not36, label %31, label %28

28:                                               ; preds = %25
  tail call void @pack64(i64 noundef %27, ptr noundef %2) #17
  %29 = load i32, ptr %22, align 8
  tail call void @pack32(i32 noundef %29, ptr noundef %2) #17
  %30 = add nsw i32 %.139, 1
  br label %31

31:                                               ; preds = %28, %25, %.lr.ph
  %.2 = phi i32 [ %30, %28 ], [ %.139, %25 ], [ %.139, %.lr.ph ]
  %32 = getelementptr inbounds nuw i8, ptr %.03040, i64 8
  %.030 = load ptr, ptr %32, align 8
  %.not35 = icmp eq ptr %.030, null
  br i1 %.not35, label %._crit_edge.split, label %.lr.ph, !llvm.loop !37

._crit_edge.split:                                ; preds = %31, %.preheader.split
  %.1.lcssa = phi i32 [ %.03141, %.preheader.split ], [ %.2, %31 ]
  %indvars.iv.next = add nuw nsw i64 %indvars.iv, 1
  %exitcond.not = icmp eq i64 %indvars.iv.next, 100
  br i1 %exitcond.not, label %.split.us, label %.preheader.split, !llvm.loop !36

.split.us:                                        ; preds = %._crit_edge.split, %._crit_edge.split.us.us
  %.us-phi43 = phi i32 [ %.1.lcssa.us, %._crit_edge.split.us.us ], [ %.1.lcssa, %._crit_edge.split ]
  %.not34 = icmp eq i32 %.us-phi43, 0
  br i1 %.not34, label %35, label %33

33:                                               ; preds = %.split.us
  %34 = load i32, ptr %5, align 4
  store i32 %6, ptr %5, align 4
  tail call void @pack32(i32 noundef %.us-phi43, ptr noundef %2) #17
  store i32 %34, ptr %5, align 4
  br label %35

35:                                               ; preds = %.split.us, %33, %4
  %.0 = phi i32 [ 0, %4 ], [ %.us-phi43, %33 ], [ 0, %.split.us ]
  ret i32 %.0
}